target datalayout = "e-m:e-p270:32:32-p271:32:32-p272:64:64-i64:64-i128:128-f80:128-n8:16:32:64-S128"
target triple = "x86_64-pc-linux-gnu"

%union.pthread_mutex_t = type { %struct.__pthread_mutex_s }
%struct.__pthread_mutex_s = type { i32, i32, i32, i32, i32, i16, i16, %struct.__pthread_internal_list }
%struct.__pthread_internal_list = type { ptr, ptr }
%struct.slurm_acct_gather_energy_ops = type { ptr, ptr, ptr, ptr, ptr, ptr }

@g_context_lock = internal global %union.pthread_mutex_t zeroinitializer, align 8
@.str.1 = private unnamed_addr constant [29 x i8] c"%s: pthread_mutex_lock(): %m\00", align 1
@g_context_num = internal global i32 -1, align 4
@ops = internal global ptr null, align 8
@g_context = internal global ptr null, align 8
@.str.7 = private unnamed_addr constant [31 x i8] c"%s: pthread_mutex_unlock(): %m\00", align 1
@__func__.acct_gather_energy_g_update_node_energy = private unnamed_addr constant [40 x i8] c"acct_gather_energy_g_update_node_energy\00", align 1

; Function Attrs: nounwind uwtable
define dso_local i32 @acct_gather_energy_g_update_node_energy() #0 {
  %1 = alloca i32, align 4
  %2 = alloca i32, align 4
  %3 = alloca i32, align 4
  %4 = alloca i32, align 4
  %5 = alloca i32, align 4
  %6 = alloca i32, align 4
  call void @llvm.lifetime.start.p0(i64 4, ptr %2) #7
  store i32 -1, ptr %2, align 4
  %7 = load i32, ptr @g_context_num, align 4
  %8 = icmp ne i32 %7, 0
  br i1 %8, label %10, label %9

9:                                                ; preds = %0
  store i32 0, ptr %1, align 4
  store i32 1, ptr %3, align 4
  br label %57

10:                                               ; preds = %0
  br label %11

11:                                               ; preds = %10
  call void @llvm.lifetime.start.p0(i64 4, ptr %4) #7
  %12 = call i32 @pthread_mutex_lock(ptr noundef @g_context_lock) #7
  store i32 %12, ptr %4, align 4
  %13 = load i32, ptr %4, align 4
  %14 = icmp ne i32 %13, 0
  br i1 %14, label %15, label %18

15:                                               ; preds = %11
  %16 = load i32, ptr %4, align 4
  %17 = call ptr @__errno_location() #8
  store i32 %16, ptr %17, align 4
  call void (ptr, ...) @fatal_abort(ptr noundef @.str.1, ptr noundef @__func__.acct_gather_energy_g_update_node_energy) #9
  unreachable

18:                                               ; preds = %11
  call void @llvm.lifetime.end.p0(i64 4, ptr %4) #7
  br label %19

19:                                               ; preds = %18
  br label %20

20:                                               ; preds = %19
  call void @llvm.lifetime.start.p0(i64 4, ptr %5) #7
  store i32 0, ptr %5, align 4
  br label %21

21:                                               ; preds = %42, %20
  %22 = load i32, ptr %5, align 4
  %23 = load i32, ptr @g_context_num, align 4
  %24 = icmp slt i32 %22, %23
  br i1 %24, label %26, label %25

25:                                               ; preds = %21
  store i32 4, ptr %3, align 4
  call void @llvm.lifetime.end.p0(i64 4, ptr %5) #7
  br label %45

26:                                               ; preds = %21
  %27 = load ptr, ptr @g_context, align 8
  %28 = load i32, ptr %5, align 4
  %29 = sext i32 %28 to i64
  %30 = getelementptr inbounds ptr, ptr %27, i64 %29
  %31 = load ptr, ptr %30, align 8
  %32 = icmp ne ptr %31, null
  br i1 %32, label %34, label %33

33:                                               ; preds = %26
  br label %42

34:                                               ; preds = %26
  %35 = load ptr, ptr @ops, align 8
  %36 = load i32, ptr %5, align 4
  %37 = sext i32 %36 to i64
  %38 = getelementptr inbounds %struct.slurm_acct_gather_energy_ops, ptr %35, i64 %37
  %39 = getelementptr inbounds nuw %struct.slurm_acct_gather_energy_ops, ptr %38, i32 0, i32 0
  %40 = load ptr, ptr %39, align 8
  %41 = call i32 %40()
  store i32 %41, ptr %2, align 4
  br label %42

42:                                               ; preds = %34, %33
  %43 = load i32, ptr %5, align 4
  %44 = add nsw i32 %43, 1
  store i32 %44, ptr %5, align 4
  br label %21, !llvm.loop !14

45:                                               ; preds = %25
  br label %46

46:                                               ; preds = %45
  call void @llvm.lifetime.start.p0(i64 4, ptr %6) #7
  %47 = call i32 @pthread_mutex_unlock(ptr noundef @g_context_lock) #7
  store i32 %47, ptr %6, align 4
  %48 = load i32, ptr %6, align 4
  %49 = icmp ne i32 %48, 0
  br i1 %49, label %50, label %53

50:                                               ; preds = %46
  %51 = load i32, ptr %6, align 4
  %52 = call ptr @__errno_location() #8
  store i32 %51, ptr %52, align 4
  call void (ptr, ...) @fatal_abort(ptr noundef @.str.7, ptr noundef @__func__.acct_gather_energy_g_update_node_energy) #9
  unreachable

53:                                               ; preds = %46
  call void @llvm.lifetime.end.p0(i64 4, ptr %6) #7
  br label %54

54:                                               ; preds = %53
  br label %55

55:                                               ; preds = %54
  %56 = load i32, ptr %2, align 4
  store i32 %56, ptr %1, align 4
  store i32 1, ptr %3, align 4
  br label %57

57:                                               ; preds = %55, %9
  call void @llvm.lifetime.end.p0(i64 4, ptr %2) #7
  %58 = load i32, ptr %1, align 4
  ret i32 %58
}