; Function Attrs: nounwind uwtable
define dso_local i32 @acct_gather_energy_g_update_node_energy() local_unnamed_addr #0 {
  %1 = load i32, ptr @g_context_num, align 4
  %.not = icmp eq i32 %1, 0
  br i1 %.not, label %25, label %2

2:                                                ; preds = %0
  %3 = tail call i32 @pthread_mutex_lock(ptr noundef nonnull @g_context_lock) #8
  %.not14 = icmp eq i32 %3, 0
  br i1 %.not14, label %.preheader, label %6

.preheader:                                       ; preds = %2
  %4 = load i32, ptr @g_context_num, align 4
  %5 = icmp sgt i32 %4, 0
  br i1 %5, label %.lr.ph.preheader, label %._crit_edge

.lr.ph.preheader:                                 ; preds = %.preheader
  %.pre20 = load ptr, ptr @g_context, align 8
  br label %.lr.ph

6:                                                ; preds = %2
  %7 = tail call ptr @__errno_location() #9
  store i32 %3, ptr %7, align 4
  tail call void (ptr, ...) @fatal_abort(ptr noundef nonnull @.str.1, ptr noundef nonnull @__func__.acct_gather_energy_g_update_node_energy) #10
  unreachable

._crit_edge:                                      ; preds = %18, %.preheader
  %.011.lcssa = phi i32 [ -1, %.preheader ], [ %.1, %18 ]
  %8 = tail call i32 @pthread_mutex_unlock(ptr noundef nonnull @g_context_lock) #8
  %.not15 = icmp eq i32 %8, 0
  br i1 %.not15, label %25, label %23

.lr.ph:                                           ; preds = %.lr.ph.preheader, %18
  %9 = phi i32 [ %4, %.lr.ph.preheader ], [ %19, %18 ]
  %10 = phi ptr [ %.pre20, %.lr.ph.preheader ], [ %20, %18 ]
  %indvars.iv = phi i64 [ 0, %.lr.ph.preheader ], [ %indvars.iv.next, %18 ]
  %.01117 = phi i32 [ -1, %.lr.ph.preheader ], [ %.1, %18 ]
  %11 = getelementptr inbounds nuw ptr, ptr %10, i64 %indvars.iv
  %12 = load ptr, ptr %11, align 8
  %.not16 = icmp eq ptr %12, null
  br i1 %.not16, label %18, label %13

13:                                               ; preds = %.lr.ph
  %14 = load ptr, ptr @ops, align 8
  %15 = getelementptr inbounds nuw %struct.slurm_acct_gather_energy_ops, ptr %14, i64 %indvars.iv
  %16 = load ptr, ptr %15, align 8
  %17 = tail call i32 %16() #8
  %.pre = load ptr, ptr @g_context, align 8
  %.pre21 = load i32, ptr @g_context_num, align 4
  br label %18

18:                                               ; preds = %.lr.ph, %13
  %19 = phi i32 [ %.pre21, %13 ], [ %9, %.lr.ph ]
  %20 = phi ptr [ %.pre, %13 ], [ %10, %.lr.ph ]
  %.1 = phi i32 [ %17, %13 ], [ %.01117, %.lr.ph ]
  %indvars.iv.next = add nuw nsw i64 %indvars.iv, 1
  %21 = sext i32 %19 to i64
  %22 = icmp slt i64 %indvars.iv.next, %21
  br i1 %22, label %.lr.ph, label %._crit_edge, !llvm.loop !12

23:                                               ; preds = %._crit_edge
  %24 = tail call ptr @__errno_location() #9
  store i32 %8, ptr %24, align 4
  tail call void (ptr, ...) @fatal_abort(ptr noundef nonnull @.str.7, ptr noundef nonnull @__func__.acct_gather_energy_g_update_node_energy) #10
  unreachable

25:                                               ; preds = %._crit_edge, %0
  %.0 = phi i32 [ 0, %0 ], [ %.011.lcssa, %._crit_edge ]
  ret i32 %.0
}